; Function Attrs: mustprogress uwtable
define hidden noundef zeroext i1 @_ZNK19OpenColorIO_v2_5dev23GradingBSplineCurveImpl10isIdentityEv(ptr noundef nonnull align 8 dereferenceable(56) %0) local_unnamed_addr #0 align 2 {
  %2 = getelementptr inbounds nuw i8, ptr %0, i64 8
  %3 = load ptr, ptr %2, align 8, !tbaa !44
  %4 = getelementptr inbounds nuw i8, ptr %0, i64 16
  %5 = load ptr, ptr %4, align 8, !tbaa !44
  %.not15 = icmp eq ptr %3, %5
  br i1 %.not15, label %._crit_edge, label %.lr.ph

6:                                                ; preds = %.lr.ph
  %7 = getelementptr inbounds nuw i8, ptr %.sroa.09.016, i64 8
  %.not = icmp eq ptr %7, %5
  br i1 %.not, label %._crit_edge, label %.lr.ph

.lr.ph:                                           ; preds = %1, %6
  %.sroa.09.016 = phi ptr [ %7, %6 ], [ %3, %1 ]
  %8 = load float, ptr %.sroa.09.016, align 4, !tbaa !63
  %9 = getelementptr inbounds nuw i8, ptr %.sroa.09.016, i64 4
  %10 = load float, ptr %9, align 4, !tbaa !66
  %11 = fcmp oeq float %8, %10
  br i1 %11, label %6, label %.loopexit

._crit_edge:                                      ; preds = %6, %1
  %12 = load ptr, ptr %0, align 8, !tbaa !26
  %13 = getelementptr inbounds nuw i8, ptr %12, i64 56
  %14 = load ptr, ptr %13, align 8
  %15 = tail call noundef zeroext i1 %14(ptr noundef nonnull align 8 dereferenceable(56) %0)
  br label %.loopexit

.loopexit:                                        ; preds = %.lr.ph, %._crit_edge
  %.3 = phi i1 [ %15, %._crit_edge ], [ false, %.lr.ph ]
  ret i1 %.3
}